; ModuleID = 'source-C-CXX/57/658.c'
source_filename = "source-C-CXX/57/658.c"
target datalayout = "e-m:e-p270:32:32-p271:32:32-p272:64:64-i64:64-f80:128-n8:16:32:64-S128"
target triple = "x86_64-pc-linux-gnu"

@.str = private unnamed_addr constant [4 x i8] c"%d\0A\00", align 1
@str = private unnamed_addr constant [2 x i8] c"0\00", align 1
@str.3 = private unnamed_addr constant [2 x i8] c"1\00", align 1

; Function Attrs: nounwind sspstrong uwtable
define dso_local i32 @main() local_unnamed_addr #0 {
  %1 = alloca i32, align 4
  %2 = alloca [81 x i8], align 16
  %3 = bitcast i32* %1 to i8*
  call void @llvm.lifetime.start.p0i8(i64 4, i8* nonnull %3) #6
  %4 = getelementptr inbounds [81 x i8], [81 x i8]* %2, i64 0, i64 0
  call void @llvm.lifetime.start.p0i8(i64 81, i8* nonnull %4) #6
  %5 = call i32 (i8*, ...) @__isoc99_scanf(i8* getelementptr inbounds ([4 x i8], [4 x i8]* @.str, i64 0, i64 0), i32* nonnull %1)
  %6 = load i32, i32* %1, align 4, !tbaa !5
  %7 = icmp slt i32 %6, 1
  br i1 %7, label %52, label %8

8:                                                ; preds = %0, %46
  %9 = phi i32 [ %49, %46 ], [ 1, %0 ]
  %10 = call i32 (i8*, ...) bitcast (i32 (...)* @gets to i32 (i8*, ...)*)(i8* nonnull %4) #6
  %11 = call i64 @strlen(i8* noundef nonnull %4) #7
  %12 = trunc i64 %11 to i32
  %13 = load i8, i8* %4, align 16, !tbaa !9
  %14 = add i8 %13, -65
  %15 = icmp ult i8 %14, 26
  br i1 %15, label %21, label %16

16:                                               ; preds = %8
  %17 = add i8 %13, -97
  %18 = icmp ult i8 %17, 26
  %19 = icmp eq i8 %13, 95
  %20 = or i1 %19, %18
  br i1 %20, label %21, label %42

21:                                               ; preds = %16, %8
  %22 = icmp sgt i32 %12, 1
  br i1 %22, label %23, label %42

23:                                               ; preds = %21
  %24 = and i64 %11, 4294967295
  br label %25

25:                                               ; preds = %23, %37
  %26 = phi i64 [ 1, %23 ], [ %38, %37 ]
  %27 = getelementptr inbounds [81 x i8], [81 x i8]* %2, i64 0, i64 %26
  %28 = load i8, i8* %27, align 1, !tbaa !9
  %29 = and i8 %28, -33
  %30 = add i8 %29, -65
  %31 = icmp ult i8 %30, 26
  br i1 %31, label %37, label %32

32:                                               ; preds = %25
  %33 = add i8 %28, -48
  %34 = icmp ult i8 %33, 10
  %35 = icmp eq i8 %28, 95
  %36 = or i1 %35, %34
  br i1 %36, label %37, label %40

37:                                               ; preds = %32, %25
  %38 = add nuw nsw i64 %26, 1
  %39 = icmp eq i64 %38, %24
  br i1 %39, label %46, label %25, !llvm.loop !10

40:                                               ; preds = %32
  %41 = trunc i64 %26 to i32
  br label %42

42:                                               ; preds = %40, %21, %16
  %43 = phi i32 [ 0, %16 ], [ 1, %21 ], [ %41, %40 ]
  %44 = icmp slt i32 %43, %12
  %45 = select i1 %44, i8* getelementptr inbounds ([2 x i8], [2 x i8]* @str, i64 0, i64 0), i8* getelementptr inbounds ([2 x i8], [2 x i8]* @str.3, i64 0, i64 0)
  br label %46

46:                                               ; preds = %37, %42
  %47 = phi i8* [ %45, %42 ], [ getelementptr inbounds ([2 x i8], [2 x i8]* @str.3, i64 0, i64 0), %37 ]
  %48 = call i32 @puts(i8* nonnull dereferenceable(1) %47)
  %49 = add nuw nsw i32 %9, 1
  %50 = load i32, i32* %1, align 4, !tbaa !5
  %51 = icmp slt i32 %9, %50
  br i1 %51, label %8, label %52, !llvm.loop !12

52:                                               ; preds = %46, %0
  call void @llvm.lifetime.end.p0i8(i64 81, i8* nonnull %4) #6
  call void @llvm.lifetime.end.p0i8(i64 4, i8* nonnull %3) #6
  ret i32 0
}

; Function Attrs: argmemonly mustprogress nofree nosync nounwind willreturn
declare void @llvm.lifetime.start.p0i8(i64 immarg, i8* nocapture) #1

; Function Attrs: nofree nounwind
declare noundef i32 @__isoc99_scanf(i8* nocapture noundef readonly, ...) local_unnamed_addr #2

declare i32 @gets(...) local_unnamed_addr #3

; Function Attrs: argmemonly mustprogress nofree nounwind readonly willreturn
declare i64 @strlen(i8* nocapture) local_unnamed_addr #4

; Function Attrs: argmemonly mustprogress nofree nosync nounwind willreturn
declare void @llvm.lifetime.end.p0i8(i64 immarg, i8* nocapture) #1

; Function Attrs: nofree nounwind
declare noundef i32 @puts(i8* nocapture noundef readonly) local_unnamed_addr #5


!llvm.module.flags = !{!0, !1, !2, !3}
!llvm.ident = !{!4}

!0 = !{i32 1, !"wchar_size", i32 4}
!1 = !{i32 7, !"PIC Level", i32 2}
!2 = !{i32 7, !"PIE Level", i32 2}
!3 = !{i32 7, !"uwtable", i32 1}
!4 = !{!"clang version 13.0.0"}
!5 = !{!6, !6, i64 0}
!6 = !{!"int", !7, i64 0}
!7 = !{!"omnipotent char", !8, i64 0}
!8 = !{!"Simple C/C++ TBAA"}
!9 = !{!7, !7, i64 0}
!10 = distinct !{!10, !11}
!11 = !{!"llvm.loop.mustprogress"}
!12 = distinct !{!12, !11}
